; Function Attrs: mustprogress uwtable
define void @udatpg_setDateTimeFormatForStyle_77(ptr noundef %0, i32 noundef %1, ptr noundef %2, i32 noundef %3, ptr noundef %4) local_unnamed_addr #0 personality ptr @__gxx_personality_v0 {
  %6 = alloca %"class.icu_77::UnicodeString", align 8
  %7 = alloca %"class.icu_77::ConstChar16Ptr", align 8
  %8 = load i32, ptr %4, align 4, !tbaa !6
  %9 = icmp slt i32 %8, 1
  br i1 %9, label %10, label %18

10:                                               ; preds = %5
  %11 = icmp eq ptr %2, null
  br i1 %11, label %12, label %13

12:                                               ; preds = %10
  store i32 1, ptr %4, align 4, !tbaa !6
  br label %18

13:                                               ; preds = %10
  call void @llvm.lifetime.start.p0(i64 64, ptr nonnull %6) #5
  %.lobit = lshr i32 %3, 31
  %14 = trunc nuw nsw i32 %.lobit to i8
  store ptr %2, ptr %7, align 8, !tbaa !9
  invoke void @_ZN6icu_7713UnicodeStringC1EaNS_14ConstChar16PtrEi(ptr noundef nonnull align 8 dereferenceable(64) %6, i8 noundef signext %14, ptr noundef nonnull %7, i32 noundef %3)
          to label %15 unwind label %19

15:                                               ; preds = %13
  %16 = load ptr, ptr %7, align 8, !tbaa !9
  call void asm sideeffect "", "rm,~{memory},~{dirflag},~{fpsr},~{flags}"(ptr %16) #5, !srcloc !13
  invoke void @_ZN6icu_7724DateTimePatternGenerator17setDateTimeFormatE16UDateFormatStyleRKNS_13UnicodeStringER10UErrorCode(ptr noundef nonnull align 8 dereferenceable(4796) %0, i32 noundef %1, ptr noundef nonnull align 8 dereferenceable(64) %6, ptr noundef nonnull align 4 dereferenceable(4) %4)
          to label %17 unwind label %22

17:                                               ; preds = %15
  call void @_ZN6icu_7713UnicodeStringD1Ev(ptr noundef nonnull align 8 dereferenceable(64) %6) #5
  call void @llvm.lifetime.end.p0(i64 64, ptr nonnull %6) #5
  br label %18

18:                                               ; preds = %5, %17, %12
  ret void

19:                                               ; preds = %13
  %20 = landingpad { ptr, i32 }
          cleanup
  %21 = load ptr, ptr %7, align 8, !tbaa !9
  call void asm sideeffect "", "rm,~{memory},~{dirflag},~{fpsr},~{flags}"(ptr %21) #5, !srcloc !13
  br label %24

22:                                               ; preds = %15
  %23 = landingpad { ptr, i32 }
          cleanup
  call void @_ZN6icu_7713UnicodeStringD1Ev(ptr noundef nonnull align 8 dereferenceable(64) %6) #5
  br label %24

24:                                               ; preds = %22, %19
  %.pn = phi { ptr, i32 } [ %23, %22 ], [ %20, %19 ]
  call void @llvm.lifetime.end.p0(i64 64, ptr nonnull %6) #5
  resume { ptr, i32 } %.pn
}